; ModuleID = '28/761.c'
source_filename = "28/761.c"
target datalayout = "e-m:e-p270:32:32-p271:32:32-p272:64:64-i64:64-f80:128-n8:16:32:64-S128"
target triple = "x86_64-pc-linux-gnu"

@.str = private unnamed_addr constant [3 x i8] c"%d\00", align 1
@.str.1 = private unnamed_addr constant [4 x i8] c"%d,\00", align 1

; Function Attrs: noinline nounwind uwtable
define dso_local void @main() #0 {
  %1 = alloca i8*, align 8
  %2 = alloca i8*, align 8
  %3 = alloca i8*, align 8
  %4 = alloca i32, align 4
  %5 = call noalias i8* @malloc(i64 301) #4
  store i8* %5, i8** %1, align 8
  %6 = load i8*, i8** %1, align 8
  call void @llvm.memset.p0i8.i64(i8* align 1 %6, i8 0, i64 8, i1 false)
  %7 = load i8*, i8** %1, align 8
  %8 = call i32 (i8*, ...) bitcast (i32 (...)* @gets to i32 (i8*, ...)*)(i8* %7)
  %9 = load i8*, i8** %1, align 8
  store i8* %9, i8** %3, align 8
  store i8* %9, i8** %2, align 8
  br label %10

10:                                               ; preds = %0, %20, %42, %59, %66
  %11 = load i8*, i8** %2, align 8
  %12 = load i8, i8* %11, align 1
  %13 = sext i8 %12 to i32
  %14 = icmp ne i32 %13, 32
  br i1 %14, label %15, label %23

15:                                               ; preds = %10
  %16 = load i8*, i8** %2, align 8
  %17 = load i8, i8* %16, align 1
  %18 = sext i8 %17 to i32
  %19 = icmp ne i32 %18, 0
  br i1 %19, label %20, label %23

20:                                               ; preds = %15
  %21 = load i8*, i8** %2, align 8
  %22 = getelementptr inbounds i8, i8* %21, i32 1
  store i8* %22, i8** %2, align 8
  br label %10

23:                                               ; preds = %15, %10
  %24 = load i8*, i8** %2, align 8
  %25 = load i8, i8* %24, align 1
  %26 = sext i8 %25 to i32
  %27 = icmp eq i32 %26, 32
  br i1 %27, label %33, label %28

28:                                               ; preds = %23
  %29 = load i8*, i8** %2, align 8
  %30 = load i8, i8* %29, align 1
  %31 = sext i8 %30 to i32
  %32 = icmp eq i32 %31, 0
  br i1 %32, label %33, label %66

33:                                               ; preds = %28, %23
  %34 = load i8*, i8** %2, align 8
  %35 = load i8*, i8** %3, align 8
  %36 = ptrtoint i8* %34 to i64
  %37 = ptrtoint i8* %35 to i64
  %38 = sub i64 %36, %37
  %39 = trunc i64 %38 to i32
  store i32 %39, i32* %4, align 4
  %40 = load i32, i32* %4, align 4
  %41 = icmp eq i32 %40, 0
  br i1 %41, label %42, label %46

42:                                               ; preds = %33
  %43 = load i8*, i8** %2, align 8
  %44 = getelementptr inbounds i8, i8* %43, i32 1
  store i8* %44, i8** %2, align 8
  %45 = load i8*, i8** %2, align 8
  store i8* %45, i8** %3, align 8
  br label %10

46:                                               ; preds = %33
  %47 = load i8*, i8** %2, align 8
  %48 = load i8, i8* %47, align 1
  %49 = sext i8 %48 to i32
  %50 = icmp eq i32 %49, 0
  br i1 %50, label %51, label %54

51:                                               ; preds = %46
  %52 = load i32, i32* %4, align 4
  %53 = call i32 (i8*, ...) @printf(i8* getelementptr inbounds ([3 x i8], [3 x i8]* @.str, i64 0, i64 0), i32 %52)
  br label %67

54:                                               ; preds = %46
  %55 = load i8*, i8** %2, align 8
  %56 = load i8, i8* %55, align 1
  %57 = sext i8 %56 to i32
  %58 = icmp eq i32 %57, 32
  br i1 %58, label %59, label %65

59:                                               ; preds = %54
  %60 = load i32, i32* %4, align 4
  %61 = call i32 (i8*, ...) @printf(i8* getelementptr inbounds ([4 x i8], [4 x i8]* @.str.1, i64 0, i64 0), i32 %60)
  %62 = load i8*, i8** %2, align 8
  %63 = getelementptr inbounds i8, i8* %62, i32 1
  store i8* %63, i8** %2, align 8
  %64 = load i8*, i8** %2, align 8
  store i8* %64, i8** %3, align 8
  br label %10

65:                                               ; preds = %54
  br label %66

66:                                               ; preds = %65, %28
  br label %10

67:                                               ; preds = %51
  ret void
}

; Function Attrs: nounwind
declare dso_local noalias i8* @malloc(i64) #1

; Function Attrs: argmemonly nounwind willreturn
declare void @llvm.memset.p0i8.i64(i8* nocapture writeonly, i8, i64, i1 immarg) #2

declare dso_local i32 @gets(...) #3

declare dso_local i32 @printf(i8*, ...) #3


!llvm.module.flags = !{!0}
!llvm.ident = !{!1}

!0 = !{i32 1, !"wchar_size", i32 4}
!1 = !{!"clang version 10.0.0-4ubuntu1 "}
