; ModuleID = 'source-C-CXX/27/761.c'
source_filename = "source-C-CXX/27/761.c"
target datalayout = "e-m:e-p270:32:32-p271:32:32-p272:64:64-i64:64-f80:128-n8:16:32:64-S128"
target triple = "x86_64-pc-linux-gnu"

@.str = private unnamed_addr constant [3 x i8] c"%d\00", align 1
@.str.1 = private unnamed_addr constant [4 x i8] c"%d,\00", align 1

; Function Attrs: nounwind sspstrong uwtable
define dso_local void @main() local_unnamed_addr #0 {
  %1 = tail call noalias align 16 dereferenceable_or_null(301) i8* @malloc(i64 301) #4
  %2 = bitcast i8* %1 to i64*
  store i64 0, i64* %2, align 16
  %3 = tail call i32 (i8*, ...) bitcast (i32 (...)* @gets to i32 (i8*, ...)*)(i8* %1) #4
  br label %4

4:                                                ; preds = %19, %0
  %5 = phi i8* [ %1, %0 ], [ %20, %19 ]
  br label %6

6:                                                ; preds = %4, %17
  %7 = phi i8* [ %5, %4 ], [ %18, %17 ]
  %8 = load i8, i8* %7, align 1, !tbaa !5
  switch i8 %8, label %17 [
    i8 32, label %9
    i8 0, label %9
  ]

9:                                                ; preds = %6, %6
  %10 = ptrtoint i8* %7 to i64
  %11 = ptrtoint i8* %5 to i64
  %12 = sub i64 %10, %11
  %13 = trunc i64 %12 to i32
  %14 = icmp eq i32 %13, 0
  br i1 %14, label %19, label %15

15:                                               ; preds = %9
  switch i8 %8, label %16 [
    i8 0, label %21
    i8 32, label %24
  ]

16:                                               ; preds = %15, %16
  br label %16

17:                                               ; preds = %6
  %18 = getelementptr inbounds i8, i8* %7, i64 1
  br label %6

19:                                               ; preds = %9, %24
  %20 = getelementptr inbounds i8, i8* %7, i64 1
  br label %4

21:                                               ; preds = %15
  %22 = trunc i64 %12 to i32
  %23 = tail call i32 (i8*, ...) @printf(i8* nonnull dereferenceable(1) getelementptr inbounds ([3 x i8], [3 x i8]* @.str, i64 0, i64 0), i32 %22)
  ret void

24:                                               ; preds = %15
  %25 = tail call i32 (i8*, ...) @printf(i8* nonnull dereferenceable(1) getelementptr inbounds ([4 x i8], [4 x i8]* @.str.1, i64 0, i64 0), i32 %13)
  br label %19
}

; Function Attrs: inaccessiblememonly mustprogress nofree nounwind willreturn
declare noalias noundef align 16 i8* @malloc(i64 noundef) local_unnamed_addr #1

declare i32 @gets(...) local_unnamed_addr #2

; Function Attrs: nofree nounwind
declare noundef i32 @printf(i8* nocapture noundef readonly, ...) local_unnamed_addr #3


!llvm.module.flags = !{!0, !1, !2, !3}
!llvm.ident = !{!4}

!0 = !{i32 1, !"wchar_size", i32 4}
!1 = !{i32 7, !"PIC Level", i32 2}
!2 = !{i32 7, !"PIE Level", i32 2}
!3 = !{i32 7, !"uwtable", i32 1}
!4 = !{!"clang version 13.0.0"}
!5 = !{!6, !6, i64 0}
!6 = !{!"omnipotent char", !7, i64 0}
!7 = !{!"Simple C/C++ TBAA"}
